target datalayout = "e-m:e-p270:32:32-p271:32:32-p272:64:64-i64:64-i128:128-f80:128-n8:16:32:64-S128"
target triple = "x86_64-pc-linux-gnu"

; Function Attrs: mustprogress uwtable
define noundef i32 @_ZN6google8protobuf8internal24UTF8GenericScanFastAsciiEPKNS1_19UTF8StateMachineObjEPKciPi(ptr noundef %0, ptr noundef %1, i32 noundef %2, ptr noundef %3) #4 {
  %5 = alloca i32, align 4
  %6 = alloca ptr, align 8
  %7 = alloca ptr, align 8
  %8 = alloca i32, align 4
  %9 = alloca ptr, align 8
  %10 = alloca ptr, align 8
  %11 = alloca ptr, align 8
  %12 = alloca ptr, align 8
  %13 = alloca ptr, align 8
  %14 = alloca i32, align 4
  %15 = alloca i32, align 4
  %16 = alloca i32, align 4
  store ptr %0, ptr %6, align 8
  store ptr %1, ptr %7, align 8
  store i32 %2, ptr %8, align 4
  store ptr %3, ptr %9, align 8
  %17 = load ptr, ptr %9, align 8
  store i32 0, ptr %17, align 4
  %18 = load i32, ptr %8, align 4
  %19 = icmp eq i32 %18, 0
  br i1 %19, label %20, label %21

20:                                               ; preds = %4
  store i32 241, ptr %5, align 4
  br label %132

21:                                               ; preds = %4
  %22 = load ptr, ptr %7, align 8
  store ptr %22, ptr %10, align 8
  %23 = load ptr, ptr %10, align 8
  store ptr %23, ptr %11, align 8
  %24 = load ptr, ptr %10, align 8
  %25 = load i32, ptr %8, align 4
  %26 = sext i32 %25 to i64
  %27 = getelementptr inbounds i8, ptr %24, i64 %26
  store ptr %27, ptr %12, align 8
  %28 = load i32, ptr %8, align 4
  %29 = icmp slt i32 %28, 7
  br i1 %29, label %30, label %32

30:                                               ; preds = %21
  %31 = load ptr, ptr %10, align 8
  br label %35

32:                                               ; preds = %21
  %33 = load ptr, ptr %12, align 8
  %34 = getelementptr inbounds i8, ptr %33, i64 -7
  br label %35

35:                                               ; preds = %32, %30
  %36 = phi ptr [ %31, %30 ], [ %34, %32 ]
  store ptr %36, ptr %13, align 8
  br label %37

37:                                               ; preds = %120, %35
  br label %38

38:                                               ; preds = %55, %37
  %39 = load ptr, ptr %11, align 8
  %40 = ptrtoint ptr %39 to i64
  %41 = and i64 %40, 7
  %42 = icmp ne i64 %41, 0
  br i1 %42, label %43, label %53

43:                                               ; preds = %38
  %44 = load ptr, ptr %11, align 8
  %45 = load ptr, ptr %12, align 8
  %46 = icmp ult ptr %44, %45
  br i1 %46, label %47, label %53

47:                                               ; preds = %43
  %48 = load ptr, ptr %11, align 8
  %49 = getelementptr inbounds i8, ptr %48, i64 0
  %50 = load i8, ptr %49, align 1
  %51 = zext i8 %50 to i32
  %52 = icmp slt i32 %51, 128
  br label %53

53:                                               ; preds = %47, %43, %38
  %54 = phi i1 [ false, %43 ], [ false, %38 ], [ %52, %47 ]
  br i1 %54, label %55, label %58

55:                                               ; preds = %53
  %56 = load ptr, ptr %11, align 8
  %57 = getelementptr inbounds i8, ptr %56, i32 1
  store ptr %57, ptr %11, align 8
  br label %38, !llvm.loop !10

58:                                               ; preds = %53
  %59 = load ptr, ptr %11, align 8
  %60 = ptrtoint ptr %59 to i64
  %61 = and i64 %60, 7
  %62 = icmp eq i64 %61, 0
  br i1 %62, label %63, label %84

63:                                               ; preds = %58
  br label %64

64:                                               ; preds = %80, %63
  %65 = load ptr, ptr %11, align 8
  %66 = load ptr, ptr %13, align 8
  %67 = icmp ult ptr %65, %66
  br i1 %67, label %68, label %78

68:                                               ; preds = %64
  %69 = load ptr, ptr %11, align 8
  %70 = getelementptr inbounds i32, ptr %69, i64 0
  %71 = load i32, ptr %70, align 4
  %72 = load ptr, ptr %11, align 8
  %73 = getelementptr inbounds i32, ptr %72, i64 1
  %74 = load i32, ptr %73, align 4
  %75 = or i32 %71, %74
  %76 = and i32 %75, -2139062144
  %77 = icmp eq i32 %76, 0
  br label %78

78:                                               ; preds = %68, %64
  %79 = phi i1 [ false, %64 ], [ %77, %68 ]
  br i1 %79, label %80, label %83

80:                                               ; preds = %78
  %81 = load ptr, ptr %11, align 8
  %82 = getelementptr inbounds i8, ptr %81, i64 8
  store ptr %82, ptr %11, align 8
  br label %64, !llvm.loop !11

83:                                               ; preds = %78
  br label %84

84:                                               ; preds = %83, %58
  br label %85

85:                                               ; preds = %97, %84
  %86 = load ptr, ptr %11, align 8
  %87 = load ptr, ptr %12, align 8
  %88 = icmp ult ptr %86, %87
  br i1 %88, label %89, label %95

89:                                               ; preds = %85
  %90 = load ptr, ptr %11, align 8
  %91 = getelementptr inbounds i8, ptr %90, i64 0
  %92 = load i8, ptr %91, align 1
  %93 = zext i8 %92 to i32
  %94 = icmp slt i32 %93, 128
  br label %95

95:                                               ; preds = %89, %85
  %96 = phi i1 [ false, %85 ], [ %94, %89 ]
  br i1 %96, label %97, label %100

97:                                               ; preds = %95
  %98 = load ptr, ptr %11, align 8
  %99 = getelementptr inbounds i8, ptr %98, i32 1
  store ptr %99, ptr %11, align 8
  br label %85, !llvm.loop !12

100:                                              ; preds = %95
  %101 = load ptr, ptr %11, align 8
  %102 = load ptr, ptr %10, align 8
  %103 = ptrtoint ptr %101 to i64
  %104 = ptrtoint ptr %102 to i64
  %105 = sub i64 %103, %104
  %106 = trunc i64 %105 to i32
  store i32 %106, ptr %14, align 4
  %107 = load ptr, ptr %6, align 8
  %108 = load ptr, ptr %7, align 8
  %109 = load i32, ptr %14, align 4
  %110 = sext i32 %109 to i64
  %111 = getelementptr inbounds i8, ptr %108, i64 %110
  %112 = load i32, ptr %8, align 4
  %113 = load i32, ptr %14, align 4
  %114 = sub nsw i32 %112, %113
  %115 = call noundef i32 @_ZN6google8protobuf8internal15UTF8GenericScanEPKNS1_19UTF8StateMachineObjEPKciPi(ptr noundef %107, ptr noundef %111, i32 noundef %114, ptr noundef %15)
  store i32 %115, ptr %16, align 4
  %116 = load i32, ptr %15, align 4
  %117 = load ptr, ptr %11, align 8
  %118 = sext i32 %116 to i64
  %119 = getelementptr inbounds i8, ptr %117, i64 %118
  store ptr %119, ptr %11, align 8
  br label %120

120:                                              ; preds = %100
  %121 = load i32, ptr %16, align 4
  %122 = icmp eq i32 %121, 253
  br i1 %122, label %37, label %123, !llvm.loop !13

123:                                              ; preds = %120
  %124 = load ptr, ptr %11, align 8
  %125 = load ptr, ptr %10, align 8
  %126 = ptrtoint ptr %124 to i64
  %127 = ptrtoint ptr %125 to i64
  %128 = sub i64 %126, %127
  %129 = trunc i64 %128 to i32
  %130 = load ptr, ptr %9, align 8
  store i32 %129, ptr %130, align 4
  %131 = load i32, ptr %16, align 4
  store i32 %131, ptr %5, align 4
  br label %132

132:                                              ; preds = %123, %20
  %133 = load i32, ptr %5, align 4
  ret i32 %133
}